target datalayout = "e-m:e-p270:32:32-p271:32:32-p272:64:64-i64:64-i128:128-f80:128-n8:16:32:64-S128"
target triple = "x86_64-pc-linux-gnu"

%struct._lv_freetype_font_dsc_t = type { i32, %struct._lv_font_t, i32, i32, i32, ptr, ptr, ptr, ptr }
%struct._lv_font_t = type { ptr, ptr, ptr, i32, i32, i8, i8, i8, ptr, ptr, ptr }

; Function Attrs: nounwind uwtable
define void @lv_freetype_set_cbs_image_font(ptr noundef %0) #0 {
  %2 = alloca ptr, align 8
  store ptr %0, ptr %2, align 8, !tbaa !7
  br label %3

3:                                                ; preds = %1
  br label %4

4:                                                ; preds = %3
  %5 = load ptr, ptr %2, align 8, !tbaa !7
  %6 = icmp ne ptr %5, null
  br i1 %6, label %11, label %7

7:                                                ; preds = %4
  br label %8

8:                                                ; preds = %7
  br label %9

9:                                                ; preds = %8
  br label %10

10:                                               ; preds = %9, %10
  br label %10

11:                                               ; preds = %4
  br label %12

12:                                               ; preds = %11
  br label %13

13:                                               ; preds = %12
  %14 = load ptr, ptr %2, align 8, !tbaa !7
  %15 = getelementptr inbounds nuw %struct._lv_freetype_font_dsc_t, ptr %14, i32 0, i32 0
  %16 = load i32, ptr %15, align 8, !tbaa !42
  %17 = icmp eq i32 %16, 1600079444
  br i1 %17, label %22, label %18

18:                                               ; preds = %13
  br label %19

19:                                               ; preds = %18
  br label %20

20:                                               ; preds = %19
  br label %21

21:                                               ; preds = %20, %21
  br label %21

22:                                               ; preds = %13
  br label %23

23:                                               ; preds = %22
  br label %24

24:                                               ; preds = %23
  %25 = load ptr, ptr %2, align 8, !tbaa !7
  %26 = getelementptr inbounds nuw %struct._lv_freetype_font_dsc_t, ptr %25, i32 0, i32 1
  %27 = getelementptr inbounds nuw %struct._lv_font_t, ptr %26, i32 0, i32 1
  store ptr @freetype_get_glyph_bitmap_cb, ptr %27, align 8, !tbaa !43
  %28 = load ptr, ptr %2, align 8, !tbaa !7
  %29 = getelementptr inbounds nuw %struct._lv_freetype_font_dsc_t, ptr %28, i32 0, i32 1
  %30 = getelementptr inbounds nuw %struct._lv_font_t, ptr %29, i32 0, i32 2
  store ptr @freetype_image_release_cb, ptr %30, align 8, !tbaa !44
  ret void
}