; Function Attrs: nofree norecurse nosync nounwind memory(argmem: readwrite) uwtable
define void @lv_freetype_set_cbs_image_font(ptr noundef %0) local_unnamed_addr #4 {
  %.not = icmp eq ptr %0, null
  br i1 %.not, label %.preheader, label %2

.preheader:                                       ; preds = %1, %.preheader
  br label %.preheader

2:                                                ; preds = %1
  %3 = load i32, ptr %0, align 8, !tbaa !40
  %4 = icmp eq i32 %3, 1600079444
  br i1 %4, label %5, label %.preheader4

.preheader4:                                      ; preds = %2, %.preheader4
  br label %.preheader4

5:                                                ; preds = %2
  %6 = getelementptr inbounds nuw i8, ptr %0, i64 16
  store ptr @freetype_get_glyph_bitmap_cb, ptr %6, align 8, !tbaa !41
  %7 = getelementptr inbounds nuw i8, ptr %0, i64 24
  store ptr @freetype_image_release_cb, ptr %7, align 8, !tbaa !42
  ret void
}